target datalayout = "e-m:e-p270:32:32-p271:32:32-p272:64:64-i64:64-i128:128-f80:128-n8:16:32:64-S128"
target triple = "x86_64-pc-linux-gnu"

%struct.rb_symbols_t = type { i32, ptr, i64, i64 }

@ruby_global_symbols = hidden global { i32, [4 x i8], ptr, i64, i64 } { i32 246, [4 x i8] zeroinitializer, ptr null, i64 0, i64 0 }, align 8

; Function Attrs: nounwind sspstrong uwtable
define hidden void @rb_sym_global_symbols_update_references() #0 {
  %1 = alloca ptr, align 8
  call void @llvm.lifetime.start.p0(i64 8, ptr %1) #24
  store ptr @ruby_global_symbols, ptr %1, align 8, !tbaa !7
  %2 = load ptr, ptr %1, align 8, !tbaa !7
  %3 = getelementptr inbounds nuw %struct.rb_symbols_t, ptr %2, i32 0, i32 2
  %4 = load i64, ptr %3, align 8, !tbaa !18
  %5 = call i64 @rb_gc_location(i64 noundef %4)
  %6 = load ptr, ptr %1, align 8, !tbaa !7
  %7 = getelementptr inbounds nuw %struct.rb_symbols_t, ptr %6, i32 0, i32 2
  store i64 %5, ptr %7, align 8, !tbaa !18
  %8 = load ptr, ptr %1, align 8, !tbaa !7
  %9 = getelementptr inbounds nuw %struct.rb_symbols_t, ptr %8, i32 0, i32 3
  %10 = load i64, ptr %9, align 8, !tbaa !13
  %11 = call i64 @rb_gc_location(i64 noundef %10)
  %12 = load ptr, ptr %1, align 8, !tbaa !7
  %13 = getelementptr inbounds nuw %struct.rb_symbols_t, ptr %12, i32 0, i32 3
  store i64 %11, ptr %13, align 8, !tbaa !13
  call void @llvm.lifetime.end.p0(i64 8, ptr %1) #24
  ret void
}