; Function Attrs: nounwind sspstrong uwtable
define hidden void @rb_sym_global_symbols_update_references() local_unnamed_addr #0 {
  %1 = load i64, ptr getelementptr inbounds nuw (i8, ptr @ruby_global_symbols, i64 16), align 8, !tbaa !16
  %2 = tail call i64 @rb_gc_location(i64 noundef %1) #19
  store i64 %2, ptr getelementptr inbounds nuw (i8, ptr @ruby_global_symbols, i64 16), align 8, !tbaa !16
  %3 = load i64, ptr getelementptr inbounds nuw (i8, ptr @ruby_global_symbols, i64 24), align 8, !tbaa !7
  %4 = tail call i64 @rb_gc_location(i64 noundef %3) #19
  store i64 %4, ptr getelementptr inbounds nuw (i8, ptr @ruby_global_symbols, i64 24), align 8, !tbaa !7
  ret void
}